; ModuleID = '31/1188.c'
source_filename = "31/1188.c"
target datalayout = "e-m:e-p270:32:32-p271:32:32-p272:64:64-i64:64-f80:128-n8:16:32:64-S128"
target triple = "x86_64-pc-linux-gnu"

%struct.Student = type { [20 x i8], [20 x i8], i8, i32, [20 x i8], [20 x i8], %struct.Student* }

@.str = private unnamed_addr constant [3 x i8] c"%s\00", align 1
@n = common dso_local global i32 0, align 4
@.str.1 = private unnamed_addr constant [15 x i8] c"%s %c %d %s %s\00", align 1
@.str.2 = private unnamed_addr constant [19 x i8] c"%s %s %c %d %s %s\0A\00", align 1

; Function Attrs: noinline nounwind uwtable
define dso_local %struct.Student* @creat() #0 {
  %1 = alloca %struct.Student*, align 8
  %2 = alloca %struct.Student*, align 8
  %3 = alloca %struct.Student*, align 8
  %4 = call noalias i8* @malloc(i64 100) #3
  %5 = bitcast i8* %4 to %struct.Student*
  store %struct.Student* %5, %struct.Student** %3, align 8
  store %struct.Student* %5, %struct.Student** %2, align 8
  %6 = load %struct.Student*, %struct.Student** %2, align 8
  %7 = getelementptr inbounds %struct.Student, %struct.Student* %6, i32 0, i32 0
  %8 = getelementptr inbounds [20 x i8], [20 x i8]* %7, i64 0, i64 0
  %9 = call i32 (i8*, ...) @__isoc99_scanf(i8* getelementptr inbounds ([3 x i8], [3 x i8]* @.str, i64 0, i64 0), i8* %8)
  br label %10

10:                                               ; preds = %42, %0
  %11 = load %struct.Student*, %struct.Student** %2, align 8
  %12 = getelementptr inbounds %struct.Student, %struct.Student* %11, i32 0, i32 0
  %13 = getelementptr inbounds [20 x i8], [20 x i8]* %12, i64 0, i64 0
  %14 = load i8, i8* %13, align 8
  %15 = sext i8 %14 to i32
  %16 = icmp ne i32 %15, 101
  br i1 %16, label %17, label %49

17:                                               ; preds = %10
  %18 = load i32, i32* @n, align 4
  %19 = add nsw i32 %18, 1
  store i32 %19, i32* @n, align 4
  %20 = load %struct.Student*, %struct.Student** %2, align 8
  %21 = getelementptr inbounds %struct.Student, %struct.Student* %20, i32 0, i32 1
  %22 = getelementptr inbounds [20 x i8], [20 x i8]* %21, i64 0, i64 0
  %23 = load %struct.Student*, %struct.Student** %2, align 8
  %24 = getelementptr inbounds %struct.Student, %struct.Student* %23, i32 0, i32 2
  %25 = load %struct.Student*, %struct.Student** %2, align 8
  %26 = getelementptr inbounds %struct.Student, %struct.Student* %25, i32 0, i32 3
  %27 = load %struct.Student*, %struct.Student** %2, align 8
  %28 = getelementptr inbounds %struct.Student, %struct.Student* %27, i32 0, i32 4
  %29 = load %struct.Student*, %struct.Student** %2, align 8
  %30 = getelementptr inbounds %struct.Student, %struct.Student* %29, i32 0, i32 5
  %31 = call i32 (i8*, ...) @__isoc99_scanf(i8* getelementptr inbounds ([15 x i8], [15 x i8]* @.str.1, i64 0, i64 0), i8* %22, i8* %24, i32* %26, [20 x i8]* %28, [20 x i8]* %30)
  %32 = load i32, i32* @n, align 4
  %33 = icmp eq i32 %32, 1
  br i1 %33, label %34, label %37

34:                                               ; preds = %17
  %35 = load %struct.Student*, %struct.Student** %2, align 8
  %36 = getelementptr inbounds %struct.Student, %struct.Student* %35, i32 0, i32 6
  store %struct.Student* null, %struct.Student** %36, align 8
  br label %42

37:                                               ; preds = %17
  %38 = load %struct.Student*, %struct.Student** %3, align 8
  %39 = load %struct.Student*, %struct.Student** %2, align 8
  %40 = getelementptr inbounds %struct.Student, %struct.Student* %39, i32 0, i32 6
  store %struct.Student* %38, %struct.Student** %40, align 8
  %41 = load %struct.Student*, %struct.Student** %2, align 8
  store %struct.Student* %41, %struct.Student** %3, align 8
  br label %42

42:                                               ; preds = %37, %34
  %43 = call noalias i8* @malloc(i64 100) #3
  %44 = bitcast i8* %43 to %struct.Student*
  store %struct.Student* %44, %struct.Student** %2, align 8
  %45 = load %struct.Student*, %struct.Student** %2, align 8
  %46 = getelementptr inbounds %struct.Student, %struct.Student* %45, i32 0, i32 0
  %47 = getelementptr inbounds [20 x i8], [20 x i8]* %46, i64 0, i64 0
  %48 = call i32 (i8*, ...) @__isoc99_scanf(i8* getelementptr inbounds ([3 x i8], [3 x i8]* @.str, i64 0, i64 0), i8* %47)
  br label %10

49:                                               ; preds = %10
  %50 = load %struct.Student*, %struct.Student** %3, align 8
  store %struct.Student* %50, %struct.Student** %1, align 8
  %51 = load %struct.Student*, %struct.Student** %1, align 8
  ret %struct.Student* %51
}

; Function Attrs: nounwind
declare dso_local noalias i8* @malloc(i64) #1

declare dso_local i32 @__isoc99_scanf(i8*, ...) #2

; Function Attrs: noinline nounwind uwtable
define dso_local void @print(%struct.Student* %0) #0 {
  %2 = alloca %struct.Student*, align 8
  %3 = alloca %struct.Student*, align 8
  store %struct.Student* %0, %struct.Student** %2, align 8
  %4 = load %struct.Student*, %struct.Student** %2, align 8
  store %struct.Student* %4, %struct.Student** %3, align 8
  %5 = load %struct.Student*, %struct.Student** %2, align 8
  %6 = icmp ne %struct.Student* %5, null
  br i1 %6, label %7, label %36

7:                                                ; preds = %1
  br label %8

8:                                                ; preds = %32, %7
  %9 = load %struct.Student*, %struct.Student** %3, align 8
  %10 = getelementptr inbounds %struct.Student, %struct.Student* %9, i32 0, i32 0
  %11 = getelementptr inbounds [20 x i8], [20 x i8]* %10, i64 0, i64 0
  %12 = load %struct.Student*, %struct.Student** %3, align 8
  %13 = getelementptr inbounds %struct.Student, %struct.Student* %12, i32 0, i32 1
  %14 = getelementptr inbounds [20 x i8], [20 x i8]* %13, i64 0, i64 0
  %15 = load %struct.Student*, %struct.Student** %3, align 8
  %16 = getelementptr inbounds %struct.Student, %struct.Student* %15, i32 0, i32 2
  %17 = load i8, i8* %16, align 8
  %18 = sext i8 %17 to i32
  %19 = load %struct.Student*, %struct.Student** %3, align 8
  %20 = getelementptr inbounds %struct.Student, %struct.Student* %19, i32 0, i32 3
  %21 = load i32, i32* %20, align 4
  %22 = load %struct.Student*, %struct.Student** %3, align 8
  %23 = getelementptr inbounds %struct.Student, %struct.Student* %22, i32 0, i32 4
  %24 = getelementptr inbounds [20 x i8], [20 x i8]* %23, i64 0, i64 0
  %25 = load %struct.Student*, %struct.Student** %3, align 8
  %26 = getelementptr inbounds %struct.Student, %struct.Student* %25, i32 0, i32 5
  %27 = getelementptr inbounds [20 x i8], [20 x i8]* %26, i64 0, i64 0
  %28 = call i32 (i8*, ...) @printf(i8* getelementptr inbounds ([19 x i8], [19 x i8]* @.str.2, i64 0, i64 0), i8* %11, i8* %14, i32 %18, i32 %21, i8* %24, i8* %27)
  %29 = load %struct.Student*, %struct.Student** %3, align 8
  %30 = getelementptr inbounds %struct.Student, %struct.Student* %29, i32 0, i32 6
  %31 = load %struct.Student*, %struct.Student** %30, align 8
  store %struct.Student* %31, %struct.Student** %3, align 8
  br label %32

32:                                               ; preds = %8
  %33 = load %struct.Student*, %struct.Student** %3, align 8
  %34 = icmp ne %struct.Student* %33, null
  br i1 %34, label %8, label %35

35:                                               ; preds = %32
  br label %36

36:                                               ; preds = %35, %1
  ret void
}

declare dso_local i32 @printf(i8*, ...) #2

; Function Attrs: noinline nounwind uwtable
define dso_local void @main() #0 {
  %1 = alloca %struct.Student*, align 8
  %2 = call %struct.Student* @creat()
  store %struct.Student* %2, %struct.Student** %1, align 8
  %3 = load %struct.Student*, %struct.Student** %1, align 8
  call void @print(%struct.Student* %3)
  ret void
}


!llvm.module.flags = !{!0}
!llvm.ident = !{!1}

!0 = !{i32 1, !"wchar_size", i32 4}
!1 = !{!"clang version 10.0.0-4ubuntu1 "}
